; Function Attrs: nounwind uwtable
define ptr @l_Lean_Meta_Grind_Arith_Cutsat_propagateIfSupportedLe___lambda__1___boxed(ptr noundef %0, ptr noundef %1, ptr noundef %2, ptr noundef %3, ptr noundef %4, ptr noundef %5, ptr noundef %6, ptr noundef %7, ptr noundef %8, ptr noundef %9, ptr noundef %10, ptr noundef %11) local_unnamed_addr #0 {
  %13 = ptrtoint ptr %1 to i64
  %14 = lshr i64 %13, 1
  %15 = trunc i64 %14 to i8
  %16 = and i64 %13, 1
  %.not = icmp eq i64 %16, 0
  br i1 %.not, label %17, label %lean_dec.exit15

17:                                               ; preds = %12
  %18 = load i32, ptr %1, align 4, !tbaa !8
  %19 = icmp sgt i32 %18, 1
  br i1 %19, label %20, label %22, !prof !11

20:                                               ; preds = %17
  %21 = add nsw i32 %18, -1
  store i32 %21, ptr %1, align 4, !tbaa !8
  br label %lean_dec.exit15

22:                                               ; preds = %17
  %.not.i = icmp eq i32 %18, 0
  br i1 %.not.i, label %lean_dec.exit15, label %23

23:                                               ; preds = %22
  tail call void @lean_dec_ref_cold(ptr noundef nonnull %1) #4
  br label %lean_dec.exit15

lean_dec.exit15:                                  ; preds = %23, %22, %20, %12
  %24 = load ptr, ptr @l_Lean_Meta_Grind_Arith_Cutsat_propagateIfSupportedLe___lambda__1___closed__2, align 8, !tbaa !4
  %25 = tail call zeroext i8 @l_Lean_Expr_isConstOf(ptr noundef %2, ptr noundef %24) #4
  %26 = icmp eq i8 %25, 0
  br i1 %26, label %27, label %29

27:                                               ; preds = %lean_dec.exit15
  %28 = tail call ptr @l_Lean_Meta_Grind_Arith_Cutsat_propagateIntLe(ptr noundef %0, i8 noundef zeroext %15, ptr noundef %3, ptr noundef %4, ptr noundef %5, ptr noundef %6, ptr noundef %7, ptr noundef %8, ptr noundef %9, ptr noundef %10, ptr noundef %11)
  br label %l_Lean_Meta_Grind_Arith_Cutsat_propagateIfSupportedLe___lambda__1.exit

29:                                               ; preds = %lean_dec.exit15
  %30 = tail call ptr @l_Lean_Meta_Grind_Arith_Cutsat_propagateNatLe(ptr noundef %0, i8 noundef zeroext %15, ptr noundef %3, ptr noundef %4, ptr noundef %5, ptr noundef %6, ptr noundef %7, ptr noundef %8, ptr noundef %9, ptr noundef %10, ptr noundef %11)
  br label %l_Lean_Meta_Grind_Arith_Cutsat_propagateIfSupportedLe___lambda__1.exit

l_Lean_Meta_Grind_Arith_Cutsat_propagateIfSupportedLe___lambda__1.exit: ; preds = %27, %29
  %.0.i = phi ptr [ %28, %27 ], [ %30, %29 ]
  %31 = ptrtoint ptr %2 to i64
  %32 = and i64 %31, 1
  %.not18 = icmp eq i64 %32, 0
  br i1 %.not18, label %33, label %lean_dec.exit

33:                                               ; preds = %l_Lean_Meta_Grind_Arith_Cutsat_propagateIfSupportedLe___lambda__1.exit
  %34 = load i32, ptr %2, align 4, !tbaa !8
  %35 = icmp sgt i32 %34, 1
  br i1 %35, label %36, label %38, !prof !11

36:                                               ; preds = %33
  %37 = add nsw i32 %34, -1
  store i32 %37, ptr %2, align 4, !tbaa !8
  br label %lean_dec.exit

38:                                               ; preds = %33
  %.not.i16 = icmp eq i32 %34, 0
  br i1 %.not.i16, label %lean_dec.exit, label %39

39:                                               ; preds = %38
  tail call void @lean_dec_ref_cold(ptr noundef nonnull %2) #4
  br label %lean_dec.exit

lean_dec.exit:                                    ; preds = %39, %38, %36, %l_Lean_Meta_Grind_Arith_Cutsat_propagateIfSupportedLe___lambda__1.exit
  ret ptr %.0.i
}